target datalayout = "e-m:e-p270:32:32-p271:32:32-p272:64:64-i64:64-i128:128-f80:128-n8:16:32:64-S128"
target triple = "x86_64-pc-linux-gnu"

%struct.H5C_t = type { i8, ptr, ptr, i32, ptr, i64, i64, ptr, i8, ptr, i8, i8, i32, i64, [6 x i32], [6 x i64], i64, [6 x i64], i64, [6 x i64], [65536 x ptr], i32, i64, ptr, ptr, i64, ptr, ptr, i8, i8, i32, i64, [6 x i32], [6 x i64], ptr, i32, ptr, i8, i32, i32, i64, ptr, ptr, i32, i64, ptr, ptr, i32, i64, ptr, ptr, i8, i8, i64, i8, i8, i8, i8, i8, i8, %struct.H5C_auto_size_ctl_t, i32, [10 x i8], [11 x i32], i32, i32, i32, [10 x %struct.H5C_cache_entry_t], i64, i64, %struct.H5C_cache_image_ctl_t, i8, i8, i8, i8, i64, i64, i64, i64, i64, i64, i64, i32, ptr, ptr, i8, i8, [32 x i8] }
%struct.H5C_auto_size_ctl_t = type { i32, ptr, i8, i64, double, i64, i64, i64, i32, double, double, i8, i64, i32, double, double, i32, double, double, i8, i64, i32, i8, double }
%struct.H5C_cache_entry_t = type { ptr, i64, i64, ptr, i8, ptr, i8, i8, i8, i8, i32, i8, i8, i8, i8, i8, i32, ptr, i32, i32, i32, i32, i32, i8, i8, ptr, ptr, ptr, ptr, ptr, ptr, i8, i32, i8, i64, ptr, i64, i64, i32, i8, i32, i32, i8, ptr, ptr, ptr }
%struct.H5C_cache_image_ctl_t = type { i32, i8, i8, i32, i32 }

@H5C_init_g = external global i8, align 1
@H5_libterm_g = external global i8, align 1
@.str = private unnamed_addr constant [100 x i8] c"generated/home/dtcxzyw/WorkSpace/Projects/compilers/llvm-opt-benchmark/bench/hdf5/hdf5/src/H5Cint.c\00", align 1
@H5E_CACHE_g = external global i64, align 8
@H5E_SYSTEM_g = external global i64, align 8
@__func__.H5C__autoadjust__ageout__remove_all_markers = private unnamed_addr constant [44 x i8] c"H5C__autoadjust__ageout__remove_all_markers\00", align 1
@.str.11 = private unnamed_addr constant [22 x i8] c"ring buffer underflow\00", align 1
@.str.12 = private unnamed_addr constant [24 x i8] c"unused marker in LRU?!?\00", align 1

; Function Attrs: nounwind uwtable
define i32 @H5C__autoadjust__ageout__remove_all_markers(ptr noundef %0) #0 {
  %2 = alloca ptr, align 8
  %3 = alloca i32, align 4
  %4 = alloca i32, align 4
  %5 = alloca i32, align 4
  %6 = alloca i8, align 1
  store ptr %0, ptr %2, align 8, !tbaa !38
  call void @llvm.lifetime.start.p0(i64 4, ptr %3) #4
  call void @llvm.lifetime.start.p0(i64 4, ptr %4) #4
  call void @llvm.lifetime.start.p0(i64 4, ptr %5) #4
  store i32 0, ptr %5, align 4, !tbaa !40
  call void @llvm.lifetime.start.p0(i64 1, ptr %6) #4
  store i8 0, ptr %6, align 1, !tbaa !8
  %7 = load i8, ptr @H5C_init_g, align 1, !tbaa !8, !range !41, !noundef !42
  %8 = trunc i8 %7 to i1
  br i1 %8, label %13, label %9

9:                                                ; preds = %1
  %10 = load i8, ptr @H5_libterm_g, align 1, !tbaa !8, !range !41, !noundef !42
  %11 = trunc i8 %10 to i1
  %12 = xor i1 %11, true
  br label %13

13:                                               ; preds = %9, %1
  %14 = phi i1 [ true, %1 ], [ %12, %9 ]
  %15 = xor i1 %14, true
  %16 = xor i1 %15, true
  %17 = zext i1 %16 to i32
  %18 = sext i32 %17 to i64
  %19 = call i64 @llvm.expect.i64(i64 %18, i64 1)
  %20 = icmp ne i64 %19, 0
  br i1 %20, label %21, label %231

21:                                               ; preds = %13
  br label %22

22:                                               ; preds = %192, %21
  %23 = load ptr, ptr %2, align 8, !tbaa !38
  %24 = getelementptr inbounds nuw %struct.H5C_t, ptr %23, i32 0, i32 61
  %25 = load i32, ptr %24, align 8, !tbaa !64
  %26 = icmp sgt i32 %25, 0
  br i1 %26, label %27, label %229

27:                                               ; preds = %22
  %28 = load ptr, ptr %2, align 8, !tbaa !38
  %29 = getelementptr inbounds nuw %struct.H5C_t, ptr %28, i32 0, i32 64
  %30 = load i32, ptr %29, align 4, !tbaa !100
  store i32 %30, ptr %3, align 4, !tbaa !40
  %31 = load ptr, ptr %2, align 8, !tbaa !38
  %32 = getelementptr inbounds nuw %struct.H5C_t, ptr %31, i32 0, i32 63
  %33 = load i32, ptr %3, align 4, !tbaa !40
  %34 = sext i32 %33 to i64
  %35 = getelementptr inbounds [11 x i32], ptr %32, i64 0, i64 %34
  %36 = load i32, ptr %35, align 4, !tbaa !40
  store i32 %36, ptr %4, align 4, !tbaa !40
  %37 = load ptr, ptr %2, align 8, !tbaa !38
  %38 = getelementptr inbounds nuw %struct.H5C_t, ptr %37, i32 0, i32 64
  %39 = load i32, ptr %38, align 4, !tbaa !100
  %40 = add nsw i32 %39, 1
  %41 = srem i32 %40, 11
  %42 = load ptr, ptr %2, align 8, !tbaa !38
  %43 = getelementptr inbounds nuw %struct.H5C_t, ptr %42, i32 0, i32 64
  store i32 %41, ptr %43, align 4, !tbaa !100
  %44 = load ptr, ptr %2, align 8, !tbaa !38
  %45 = getelementptr inbounds nuw %struct.H5C_t, ptr %44, i32 0, i32 66
  %46 = load i32, ptr %45, align 4, !tbaa !83
  %47 = icmp sle i32 %46, 0
  br i1 %47, label %48, label %67

48:                                               ; preds = %27
  br label %49

49:                                               ; preds = %48
  br label %50

50:                                               ; preds = %49
  br label %51

51:                                               ; preds = %50
  %52 = load i64, ptr @H5E_CACHE_g, align 8, !tbaa !39
  %53 = load i64, ptr @H5E_SYSTEM_g, align 8, !tbaa !39
  %54 = call i32 (ptr, ptr, i32, i64, i64, ptr, ...) @H5E_printf_stack(ptr noundef @.str, ptr noundef @__func__.H5C__autoadjust__ageout__remove_all_markers, i32 noundef 753, i64 noundef %52, i64 noundef %53, ptr noundef @.str.11)
  br label %55

55:                                               ; preds = %51
  br label %56

56:                                               ; preds = %55
  store i8 1, ptr %6, align 1, !tbaa !8
  %57 = load i8, ptr %6, align 1, !tbaa !8, !range !41, !noundef !42
  %58 = trunc i8 %57 to i1
  %59 = zext i1 %58 to i8
  store i8 %59, ptr %6, align 1, !tbaa !8
  br label %60

60:                                               ; preds = %56
  br label %61

61:                                               ; preds = %60
  br label %62

62:                                               ; preds = %61
  store i32 -1, ptr %5, align 4, !tbaa !40
  br label %230

63:                                               ; No predecessors!
  br label %64

64:                                               ; preds = %63
  br label %65

65:                                               ; preds = %64
  br label %66

66:                                               ; preds = %65
  br label %67

67:                                               ; preds = %66, %27
  %68 = load ptr, ptr %2, align 8, !tbaa !38
  %69 = getelementptr inbounds nuw %struct.H5C_t, ptr %68, i32 0, i32 66
  %70 = load i32, ptr %69, align 4, !tbaa !83
  %71 = sub nsw i32 %70, 1
  store i32 %71, ptr %69, align 4, !tbaa !83
  %72 = load ptr, ptr %2, align 8, !tbaa !38
  %73 = getelementptr inbounds nuw %struct.H5C_t, ptr %72, i32 0, i32 62
  %74 = load i32, ptr %4, align 4, !tbaa !40
  %75 = sext i32 %74 to i64
  %76 = getelementptr inbounds [10 x i8], ptr %73, i64 0, i64 %75
  %77 = load i8, ptr %76, align 1, !tbaa !8, !range !41, !noundef !42
  %78 = trunc i8 %77 to i1
  %79 = zext i1 %78 to i32
  %80 = icmp ne i32 %79, 1
  br i1 %80, label %81, label %100

81:                                               ; preds = %67
  br label %82

82:                                               ; preds = %81
  br label %83

83:                                               ; preds = %82
  br label %84

84:                                               ; preds = %83
  %85 = load i64, ptr @H5E_CACHE_g, align 8, !tbaa !39
  %86 = load i64, ptr @H5E_SYSTEM_g, align 8, !tbaa !39
  %87 = call i32 (ptr, ptr, i32, i64, i64, ptr, ...) @H5E_printf_stack(ptr noundef @.str, ptr noundef @__func__.H5C__autoadjust__ageout__remove_all_markers, i32 noundef 757, i64 noundef %85, i64 noundef %86, ptr noundef @.str.12)
  br label %88

88:                                               ; preds = %84
  br label %89

89:                                               ; preds = %88
  store i8 1, ptr %6, align 1, !tbaa !8
  %90 = load i8, ptr %6, align 1, !tbaa !8, !range !41, !noundef !42
  %91 = trunc i8 %90 to i1
  %92 = zext i1 %91 to i8
  store i8 %92, ptr %6, align 1, !tbaa !8
  br label %93

93:                                               ; preds = %89
  br label %94

94:                                               ; preds = %93
  br label %95

95:                                               ; preds = %94
  store i32 -1, ptr %5, align 4, !tbaa !40
  br label %230

96:                                               ; No predecessors!
  br label %97

97:                                               ; preds = %96
  br label %98

98:                                               ; preds = %97
  br label %99

99:                                               ; preds = %98
  br label %100

100:                                              ; preds = %99, %67
  %101 = load ptr, ptr %2, align 8, !tbaa !38
  %102 = getelementptr inbounds nuw %struct.H5C_t, ptr %101, i32 0, i32 49
  %103 = load ptr, ptr %102, align 8, !tbaa !84
  %104 = load ptr, ptr %2, align 8, !tbaa !38
  %105 = getelementptr inbounds nuw %struct.H5C_t, ptr %104, i32 0, i32 67
  %106 = load i32, ptr %4, align 4, !tbaa !40
  %107 = sext i32 %106 to i64
  %108 = getelementptr inbounds [10 x %struct.H5C_cache_entry_t], ptr %105, i64 0, i64 %107
  %109 = icmp eq ptr %103, %108
  br i1 %109, label %110, label %130

110:                                              ; preds = %100
  %111 = load ptr, ptr %2, align 8, !tbaa !38
  %112 = getelementptr inbounds nuw %struct.H5C_t, ptr %111, i32 0, i32 67
  %113 = load i32, ptr %4, align 4, !tbaa !40
  %114 = sext i32 %113 to i64
  %115 = getelementptr inbounds [10 x %struct.H5C_cache_entry_t], ptr %112, i64 0, i64 %114
  %116 = getelementptr inbounds nuw %struct.H5C_cache_entry_t, ptr %115, i32 0, i32 29
  %117 = load ptr, ptr %116, align 8, !tbaa !91
  %118 = load ptr, ptr %2, align 8, !tbaa !38
  %119 = getelementptr inbounds nuw %struct.H5C_t, ptr %118, i32 0, i32 49
  store ptr %117, ptr %119, align 8, !tbaa !84
  %120 = load ptr, ptr %2, align 8, !tbaa !38
  %121 = getelementptr inbounds nuw %struct.H5C_t, ptr %120, i32 0, i32 49
  %122 = load ptr, ptr %121, align 8, !tbaa !84
  %123 = icmp ne ptr %122, null
  br i1 %123, label %124, label %129

124:                                              ; preds = %110
  %125 = load ptr, ptr %2, align 8, !tbaa !38
  %126 = getelementptr inbounds nuw %struct.H5C_t, ptr %125, i32 0, i32 49
  %127 = load ptr, ptr %126, align 8, !tbaa !84
  %128 = getelementptr inbounds nuw %struct.H5C_cache_entry_t, ptr %127, i32 0, i32 30
  store ptr null, ptr %128, align 8, !tbaa !86
  br label %129

129:                                              ; preds = %124, %110
  br label %146

130:                                              ; preds = %100
  %131 = load ptr, ptr %2, align 8, !tbaa !38
  %132 = getelementptr inbounds nuw %struct.H5C_t, ptr %131, i32 0, i32 67
  %133 = load i32, ptr %4, align 4, !tbaa !40
  %134 = sext i32 %133 to i64
  %135 = getelementptr inbounds [10 x %struct.H5C_cache_entry_t], ptr %132, i64 0, i64 %134
  %136 = getelementptr inbounds nuw %struct.H5C_cache_entry_t, ptr %135, i32 0, i32 29
  %137 = load ptr, ptr %136, align 8, !tbaa !91
  %138 = load ptr, ptr %2, align 8, !tbaa !38
  %139 = getelementptr inbounds nuw %struct.H5C_t, ptr %138, i32 0, i32 67
  %140 = load i32, ptr %4, align 4, !tbaa !40
  %141 = sext i32 %140 to i64
  %142 = getelementptr inbounds [10 x %struct.H5C_cache_entry_t], ptr %139, i64 0, i64 %141
  %143 = getelementptr inbounds nuw %struct.H5C_cache_entry_t, ptr %142, i32 0, i32 30
  %144 = load ptr, ptr %143, align 8, !tbaa !86
  %145 = getelementptr inbounds nuw %struct.H5C_cache_entry_t, ptr %144, i32 0, i32 29
  store ptr %137, ptr %145, align 8, !tbaa !91
  br label %146

146:                                              ; preds = %130, %129
  %147 = load ptr, ptr %2, align 8, !tbaa !38
  %148 = getelementptr inbounds nuw %struct.H5C_t, ptr %147, i32 0, i32 50
  %149 = load ptr, ptr %148, align 8, !tbaa !85
  %150 = load ptr, ptr %2, align 8, !tbaa !38
  %151 = getelementptr inbounds nuw %struct.H5C_t, ptr %150, i32 0, i32 67
  %152 = load i32, ptr %4, align 4, !tbaa !40
  %153 = sext i32 %152 to i64
  %154 = getelementptr inbounds [10 x %struct.H5C_cache_entry_t], ptr %151, i64 0, i64 %153
  %155 = icmp eq ptr %149, %154
  br i1 %155, label %156, label %176

156:                                              ; preds = %146
  %157 = load ptr, ptr %2, align 8, !tbaa !38
  %158 = getelementptr inbounds nuw %struct.H5C_t, ptr %157, i32 0, i32 67
  %159 = load i32, ptr %4, align 4, !tbaa !40
  %160 = sext i32 %159 to i64
  %161 = getelementptr inbounds [10 x %struct.H5C_cache_entry_t], ptr %158, i64 0, i64 %160
  %162 = getelementptr inbounds nuw %struct.H5C_cache_entry_t, ptr %161, i32 0, i32 30
  %163 = load ptr, ptr %162, align 8, !tbaa !86
  %164 = load ptr, ptr %2, align 8, !tbaa !38
  %165 = getelementptr inbounds nuw %struct.H5C_t, ptr %164, i32 0, i32 50
  store ptr %163, ptr %165, align 8, !tbaa !85
  %166 = load ptr, ptr %2, align 8, !tbaa !38
  %167 = getelementptr inbounds nuw %struct.H5C_t, ptr %166, i32 0, i32 50
  %168 = load ptr, ptr %167, align 8, !tbaa !85
  %169 = icmp ne ptr %168, null
  br i1 %169, label %170, label %175

170:                                              ; preds = %156
  %171 = load ptr, ptr %2, align 8, !tbaa !38
  %172 = getelementptr inbounds nuw %struct.H5C_t, ptr %171, i32 0, i32 50
  %173 = load ptr, ptr %172, align 8, !tbaa !85
  %174 = getelementptr inbounds nuw %struct.H5C_cache_entry_t, ptr %173, i32 0, i32 29
  store ptr null, ptr %174, align 8, !tbaa !91
  br label %175

175:                                              ; preds = %170, %156
  br label %192

176:                                              ; preds = %146
  %177 = load ptr, ptr %2, align 8, !tbaa !38
  %178 = getelementptr inbounds nuw %struct.H5C_t, ptr %177, i32 0, i32 67
  %179 = load i32, ptr %4, align 4, !tbaa !40
  %180 = sext i32 %179 to i64
  %181 = getelementptr inbounds [10 x %struct.H5C_cache_entry_t], ptr %178, i64 0, i64 %180
  %182 = getelementptr inbounds nuw %struct.H5C_cache_entry_t, ptr %181, i32 0, i32 30
  %183 = load ptr, ptr %182, align 8, !tbaa !86
  %184 = load ptr, ptr %2, align 8, !tbaa !38
  %185 = getelementptr inbounds nuw %struct.H5C_t, ptr %184, i32 0, i32 67
  %186 = load i32, ptr %4, align 4, !tbaa !40
  %187 = sext i32 %186 to i64
  %188 = getelementptr inbounds [10 x %struct.H5C_cache_entry_t], ptr %185, i64 0, i64 %187
  %189 = getelementptr inbounds nuw %struct.H5C_cache_entry_t, ptr %188, i32 0, i32 29
  %190 = load ptr, ptr %189, align 8, !tbaa !91
  %191 = getelementptr inbounds nuw %struct.H5C_cache_entry_t, ptr %190, i32 0, i32 30
  store ptr %183, ptr %191, align 8, !tbaa !86
  br label %192

192:                                              ; preds = %176, %175
  %193 = load ptr, ptr %2, align 8, !tbaa !38
  %194 = getelementptr inbounds nuw %struct.H5C_t, ptr %193, i32 0, i32 67
  %195 = load i32, ptr %4, align 4, !tbaa !40
  %196 = sext i32 %195 to i64
  %197 = getelementptr inbounds [10 x %struct.H5C_cache_entry_t], ptr %194, i64 0, i64 %196
  %198 = getelementptr inbounds nuw %struct.H5C_cache_entry_t, ptr %197, i32 0, i32 29
  store ptr null, ptr %198, align 8, !tbaa !91
  %199 = load ptr, ptr %2, align 8, !tbaa !38
  %200 = getelementptr inbounds nuw %struct.H5C_t, ptr %199, i32 0, i32 67
  %201 = load i32, ptr %4, align 4, !tbaa !40
  %202 = sext i32 %201 to i64
  %203 = getelementptr inbounds [10 x %struct.H5C_cache_entry_t], ptr %200, i64 0, i64 %202
  %204 = getelementptr inbounds nuw %struct.H5C_cache_entry_t, ptr %203, i32 0, i32 30
  store ptr null, ptr %204, align 8, !tbaa !86
  %205 = load ptr, ptr %2, align 8, !tbaa !38
  %206 = getelementptr inbounds nuw %struct.H5C_t, ptr %205, i32 0, i32 47
  %207 = load i32, ptr %206, align 8, !tbaa !92
  %208 = add i32 %207, -1
  store i32 %208, ptr %206, align 8, !tbaa !92
  %209 = load ptr, ptr %2, align 8, !tbaa !38
  %210 = getelementptr inbounds nuw %struct.H5C_t, ptr %209, i32 0, i32 67
  %211 = load i32, ptr %4, align 4, !tbaa !40
  %212 = sext i32 %211 to i64
  %213 = getelementptr inbounds [10 x %struct.H5C_cache_entry_t], ptr %210, i64 0, i64 %212
  %214 = getelementptr inbounds nuw %struct.H5C_cache_entry_t, ptr %213, i32 0, i32 2
  %215 = load i64, ptr %214, align 8, !tbaa !93
  %216 = load ptr, ptr %2, align 8, !tbaa !38
  %217 = getelementptr inbounds nuw %struct.H5C_t, ptr %216, i32 0, i32 48
  %218 = load i64, ptr %217, align 8, !tbaa !94
  %219 = sub i64 %218, %215
  store i64 %219, ptr %217, align 8, !tbaa !94
  %220 = load ptr, ptr %2, align 8, !tbaa !38
  %221 = getelementptr inbounds nuw %struct.H5C_t, ptr %220, i32 0, i32 62
  %222 = load i32, ptr %4, align 4, !tbaa !40
  %223 = sext i32 %222 to i64
  %224 = getelementptr inbounds [10 x i8], ptr %221, i64 0, i64 %223
  store i8 0, ptr %224, align 1, !tbaa !8
  %225 = load ptr, ptr %2, align 8, !tbaa !38
  %226 = getelementptr inbounds nuw %struct.H5C_t, ptr %225, i32 0, i32 61
  %227 = load i32, ptr %226, align 8, !tbaa !64
  %228 = sub nsw i32 %227, 1
  store i32 %228, ptr %226, align 8, !tbaa !64
  br label %22, !llvm.loop !101

229:                                              ; preds = %22
  br label %230

230:                                              ; preds = %229, %95, %62
  br label %231

231:                                              ; preds = %230, %13
  %232 = load i32, ptr %5, align 4, !tbaa !40
  call void @llvm.lifetime.end.p0(i64 1, ptr %6) #4
  call void @llvm.lifetime.end.p0(i64 4, ptr %5) #4
  call void @llvm.lifetime.end.p0(i64 4, ptr %4) #4
  call void @llvm.lifetime.end.p0(i64 4, ptr %3) #4
  ret i32 %232
}