; Function Attrs: nounwind uwtable
define range(i32 -1, 1) i32 @H5C__autoadjust__ageout__remove_all_markers(ptr noundef captures(address) %0) local_unnamed_addr #0 {
  %2 = load i8, ptr @H5C_init_g, align 1, !tbaa !38, !range !39, !noundef !40
  %3 = trunc nuw i8 %2 to i1
  %4 = load i8, ptr @H5_libterm_g, align 1, !range !39
  %5 = trunc nuw i8 %4 to i1
  %6 = xor i1 %5, true
  %7 = select i1 %3, i1 true, i1 %6
  br i1 %7, label %.preheader, label %.loopexit, !prof !41

.preheader:                                       ; preds = %1
  %8 = getelementptr inbounds nuw i8, ptr %0, i64 525048
  %.promoted = load i32, ptr %8, align 8, !tbaa !63
  %9 = icmp sgt i32 %.promoted, 0
  br i1 %9, label %.lr.ph, label %.loopexit

.lr.ph:                                           ; preds = %.preheader
  %10 = getelementptr inbounds nuw i8, ptr %0, i64 525108
  %11 = getelementptr inbounds nuw i8, ptr %0, i64 525064
  %12 = getelementptr inbounds nuw i8, ptr %0, i64 525116
  %13 = getelementptr inbounds nuw i8, ptr %0, i64 525052
  %14 = getelementptr inbounds nuw i8, ptr %0, i64 524824
  %15 = getelementptr inbounds nuw i8, ptr %0, i64 525120
  %16 = getelementptr inbounds nuw i8, ptr %0, i64 524832
  %17 = getelementptr inbounds nuw i8, ptr %0, i64 524808
  %18 = getelementptr inbounds nuw i8, ptr %0, i64 524816
  %.promoted52 = load i32, ptr %10, align 4, !tbaa !113
  %.promoted53 = load i32, ptr %12, align 4, !tbaa !82
  br label %19

19:                                               ; preds = %.lr.ph, %66
  %20 = phi i32 [ %.promoted53, %.lr.ph ], [ %34, %66 ]
  %21 = phi i32 [ %.promoted52, %.lr.ph ], [ %27, %66 ]
  %22 = phi i32 [ %.promoted, %.lr.ph ], [ %74, %66 ]
  %23 = sext i32 %21 to i64
  %24 = getelementptr inbounds [11 x i32], ptr %11, i64 0, i64 %23
  %25 = load i32, ptr %24, align 4, !tbaa !37
  %26 = add nsw i32 %21, 1
  %27 = srem i32 %26, 11
  store i32 %27, ptr %10, align 4, !tbaa !113
  %28 = icmp slt i32 %20, 1
  br i1 %28, label %29, label %33

29:                                               ; preds = %19
  %30 = load i64, ptr @H5E_CACHE_g, align 8, !tbaa !36
  %31 = load i64, ptr @H5E_SYSTEM_g, align 8, !tbaa !36
  %32 = tail call i32 (ptr, ptr, i32, i64, i64, ptr, ...) @H5E_printf_stack(ptr noundef nonnull @.str, ptr noundef nonnull @__func__.H5C__autoadjust__ageout__remove_all_markers, i32 noundef 753, i64 noundef %30, i64 noundef %31, ptr noundef nonnull @.str.11) #5
  br label %.loopexit

33:                                               ; preds = %19
  %34 = add nsw i32 %20, -1
  store i32 %34, ptr %12, align 4, !tbaa !82
  %35 = sext i32 %25 to i64
  %36 = getelementptr inbounds [10 x i8], ptr %13, i64 0, i64 %35
  %37 = load i8, ptr %36, align 1, !tbaa !38, !range !39, !noundef !40
  %.not.not = icmp eq i8 %37, 0
  br i1 %.not.not, label %38, label %42

38:                                               ; preds = %33
  %39 = load i64, ptr @H5E_CACHE_g, align 8, !tbaa !36
  %40 = load i64, ptr @H5E_SYSTEM_g, align 8, !tbaa !36
  %41 = tail call i32 (ptr, ptr, i32, i64, i64, ptr, ...) @H5E_printf_stack(ptr noundef nonnull @.str, ptr noundef nonnull @__func__.H5C__autoadjust__ageout__remove_all_markers, i32 noundef 757, i64 noundef %39, i64 noundef %40, ptr noundef nonnull @.str.12) #5
  br label %.loopexit

42:                                               ; preds = %33
  %43 = load ptr, ptr %14, align 8, !tbaa !83
  %44 = getelementptr inbounds [10 x %struct.H5C_cache_entry_t], ptr %15, i64 0, i64 %35
  %45 = icmp eq ptr %43, %44
  %46 = getelementptr inbounds nuw i8, ptr %44, i64 136
  %47 = load ptr, ptr %46, align 8, !tbaa !90
  br i1 %45, label %48, label %51

48:                                               ; preds = %42
  store ptr %47, ptr %14, align 8, !tbaa !83
  %.not = icmp eq ptr %47, null
  br i1 %.not, label %55, label %49

49:                                               ; preds = %48
  %50 = getelementptr inbounds nuw i8, ptr %47, i64 144
  store ptr null, ptr %50, align 8, !tbaa !85
  br label %55

51:                                               ; preds = %42
  %52 = getelementptr inbounds nuw i8, ptr %44, i64 144
  %53 = load ptr, ptr %52, align 8, !tbaa !85
  %54 = getelementptr inbounds nuw i8, ptr %53, i64 136
  store ptr %47, ptr %54, align 8, !tbaa !90
  br label %55

55:                                               ; preds = %48, %49, %51
  %56 = phi ptr [ null, %48 ], [ %47, %49 ], [ %47, %51 ]
  %57 = load ptr, ptr %16, align 8, !tbaa !84
  %58 = icmp eq ptr %57, %44
  %59 = getelementptr inbounds nuw i8, ptr %44, i64 144
  %60 = load ptr, ptr %59, align 8, !tbaa !85
  br i1 %58, label %61, label %64

61:                                               ; preds = %55
  store ptr %60, ptr %16, align 8, !tbaa !84
  %.not51 = icmp eq ptr %60, null
  br i1 %.not51, label %66, label %62

62:                                               ; preds = %61
  %63 = getelementptr inbounds nuw i8, ptr %60, i64 136
  store ptr null, ptr %63, align 8, !tbaa !90
  br label %66

64:                                               ; preds = %55
  %65 = getelementptr inbounds nuw i8, ptr %56, i64 144
  store ptr %60, ptr %65, align 8, !tbaa !85
  br label %66

66:                                               ; preds = %61, %62, %64
  %67 = getelementptr inbounds nuw i8, ptr %44, i64 136
  tail call void @llvm.memset.p0.i64(ptr noundef nonnull align 8 dereferenceable(16) %67, i8 0, i64 16, i1 false)
  %68 = load i32, ptr %17, align 8, !tbaa !91
  %69 = add i32 %68, -1
  store i32 %69, ptr %17, align 8, !tbaa !91
  %70 = getelementptr inbounds nuw i8, ptr %44, i64 16
  %71 = load i64, ptr %70, align 8, !tbaa !92
  %72 = load i64, ptr %18, align 8, !tbaa !93
  %73 = sub i64 %72, %71
  store i64 %73, ptr %18, align 8, !tbaa !93
  store i8 0, ptr %36, align 1, !tbaa !38
  %74 = add nsw i32 %22, -1
  store i32 %74, ptr %8, align 8, !tbaa !63
  %75 = icmp sgt i32 %22, 1
  br i1 %75, label %19, label %.loopexit, !llvm.loop !114

.loopexit:                                        ; preds = %66, %.preheader, %29, %38, %1
  %.0 = phi i32 [ -1, %29 ], [ -1, %38 ], [ 0, %1 ], [ 0, %.preheader ], [ 0, %66 ]
  ret i32 %.0
}